(dp0
S'sources_for_user_extract'
p1
(lp2
sS'G'
p3
(dp4
S'espn'
p5
(lp6
S'ITleader'
p7
aS'gman2oo1'
p8
aS'DVNJr'
p9
aS'ZachLowe_NBA'
p10
aS'rikimcdermott'
p11
aS'PGATOUR'
p12
aS'FieldYates'
p13
aS'NateRavitz'
p14
aS'ESPN_Cronometro'
p15
aS'ESPNDatos'
p16
aS'WhitlockJason'
p17
aS'ESPNF1'
p18
aS'ESPNBookers'
p19
aS'SprowESPN'
p20
aS'ESPNInsider'
p21
aS'MattBarrieESPN'
p22
aS'ESPNResearch'
p23
aS'ESPN_FanCentral'
p24
asS'calldrdave'
p25
(lp26
S'LinusTech'
p27
aS'updownkc'
p28
aS'portlandia'
p29
aS'halophoenix'
p30
aS'andyorin'
p31
aS'theforcefield'
p32
aS'BlueServiceCrew'
p33
aS'KristianNairn'
p34
aS'DickTalens'
p35
aS'VitalsLH'
p36
aS'VZWSupport'
p37
aS'VerizonSupport'
p38
aS'kevinmitnick'
p39
aS'evernotehelps'
p40
aS'hurrythefoodup'
p41
asS'rachrayray'
p42
(lp43
sS'Perhaps_Ur_RAAZ'
p44
(lp45
sS'TwitterMovies'
p46
(lp47
S'EdwardNorton'
p48
aS'_juliannemoore'
p49
aS'PattyArquette'
p50
aS'LauraDern'
p51
asS'AwesomeFactsFTW'
p52
(lp53
S'guso90210'
p54
aS'carlosb56814660'
p55
ag44
ag42
aS'CoreyMartin55'
p56
aS'morgannmusser'
p57
aS'634415964D'
p58
aS'Shavakan'
p59
aS'didomX'
p60
aS'AceMc84'
p61
aS'warodet'
p62
aS'han__clarke'
p63
aS'GeorginaMoulton'
p64
aS'dillazaxo'
p65
aS'Shrusakshi'
p66
aS'socreative'
p67
aS'DammitKong'
p68
aS'alimh059970'
p69
asS'twitter'
p70
(lp71
S'kellyshalk'
p72
aS'MagicRecs'
p73
aS'TwitterData'
p74
aS'TwitterFashion'
p75
ag46
aS'TwitterDev'
p76
aS'twitterforgood'
p77
aS'twittertv'
p78
aS'policy'
p79
aS'rosenblattdavid'
p80
aS'marjscar'
p81
aS'PeterChernin'
p82
aS'plscurrie'
p83
aS'peterfenton'
p84
aS'luca1it'
p85
aS'SkipSchipper'
p86
aS'vijaya'
p87
aS'danielgraf'
p88
asg65
(lp89
sS'BrunoMars'
p90
(lp91
S'JessicaCaban'
p92
aS'laurenxjessica'
p93
aS'TreasureU2'
p94
aS'LadySmeezington'
p95
aS'chartnews'
p96
aS'miss_lady_diva'
p97
aS'RollingStone'
p98
aS'EllieeeWood'
p99
aS'nbcsnl'
p100
aS'BrunosLadyClub'
p101
aS'Rach_Mars'
p102
aS'Joe_Gatto'
p103
aS'jessicabanfans'
p104
aS'BrunoMarsLately'
p105
aS'voguemagazine'
p106
aS'Pink'
p107
aS'rihanna'
p108
aS'TheEllenShow'
p109
asg67
(lp110
S'UPexpress'
p111
aS'Penachristian'
p112
aS'reporterchris'
p113
aS'HeforShe'
p114
aS'RumorBreak'
p115
aS'TheBatman'
p116
aS'habberfied'
p117
aS'Overload_Hockey'
p118
aS'OpGabon'
p119
aS'intifada'
p120
aS'SurveyMonkey'
p121
aS'twitter'
p122
aS'ViktorFagerLFC'
p123
aS'stackizshort'
p124
aS'aamer_rahman'
p125
aS'goodbyecaptain8'
p126
aS'mikebernard_fsg'
p127
aS'svenclaes'
p128
asg68
(lp129
sg64
(lp130
sS'RoundTeam'
p131
(lp132
S'roundteam_test'
p133
aS'RoundTeamInc'
p134
aS'GannaBoiko'
p135
aS'oboiko'
p136
asg61
(lp137
sg76
(lp138
S'hackthecycle'
p139
aS'josephchong'
p140
aS'blockchainU'
p141
aS'ArnoldGelacio'
p142
aS'pi_kumar'
p143
aS'Jason'
p144
aS'lukelightning'
p145
aS'Launch'
p146
aS'liamcbride'
p147
aS'alexjsinger'
p148
aS'JBabichJapan'
p149
aS'Bernardamus'
p150
aS'CIC_StLouis'
p151
aS'noda3k'
p152
aS'DeanMugnaini'
p153
aS'Elaine'
p154
aS'jstpierre'
p155
aS'hemal'
p156
asS'TechCrunch'
p157
(lp158
S'CaseyNewton'
p159
aS'c_magee27'
p160
aS'AOL_Inc'
p161
aS'KimKardashian'
p162
aS'jyarow'
p163
aS'twitterforgood'
p164
aS'markgurman'
p165
aS'HuffPostTech'
p166
aS'nottjmiller'
p167
aS'dogfishbeer'
p168
aS'evleaks'
p169
aS'hayley_nelson'
p170
aS'rezendi'
p171
aS'neddesmond'
p172
aS'sarahlane'
p173
aS'MattNavarra'
p174
aS'timarmstrongaol'
p175
aS'50cent'
p176
asg57
(lp177
sS'gadgetlab'
p178
(lp179
S'BSGardiner'
p180
aS'joemfbrown'
p181
aS'kifleswing'
p182
aS'WIRED'
p183
aS'valentinalucia'
p184
aS'strngwys'
p185
aS'snackfight'
p186
aS'mat'
p187
aS'nateog'
p188
aS'alexandra_chang'
p189
aS'redgirlsays'
p190
asg75
(lp191
sg59
(lp192
sS'uberlifehack'
p193
(lp194
sS'wellfactually'
p195
(lp196
sS'sploid'
p197
(lp198
sS'susannahchen'
p199
(lp200
S'baltzco'
p201
aS'bethkracklauer'
p202
aS'annaroth'
p203
aS'pete_wells'
p204
aS'pianofight'
p205
aS'jeffbercovici'
p206
aS'EisenPress'
p207
aS'LuckyPeach'
p208
aS'Lis_Mejia'
p209
aS'AP_Planner'
p210
aS'andyorin'
p211
aS'firstwefeast'
p212
aS'SkilletLH'
p213
aS'WhitsonGordon'
p214
aS'halophoenix'
p215
aS'lifehacker'
p216
aS'MisterJiu'
p217
aS'chrisyingz'
p218
asS'TwitterSports'
p219
(lp220
S'lleytonhewitt'
p221
aS'Wolfoff'
p222
aS'billclinton'
p223
aS'skratch_tv'
p224
aS'AustralianOpen'
p225
aS'ESPNCFB'
p226
aS'danawhite'
p227
aS'orafa2'
p228
aS'rugbyworldcup'
p229
aS'TheRealJGuts'
p230
aS'vivian'
p231
aS'FIFAcom'
p232
aS'TwitterSportsCA'
p233
aS'BelRedDevils'
p234
aS'PJags06'
p235
aS'FEFecuador'
p236
aS'NFSBiH'
p237
aS'LesVerts'
p238
asg66
(lp239
sg58
(lp240
S'GalaxyMobileJP'
p241
aS'SamsungExynos'
p242
aS'SamsungMobile'
p243
aS'samsung'
p244
aS'AppStore'
p245
aS'tim_cook'
p246
aS'kamiosi_tbs'
p247
aS'jcp_cc'
p248
aS'asahi_shinsen'
p249
aS'KJKChina'
p250
aS'RunningManCast'
p251
aS'ChannelYJS'
p252
aS'ilovegamdong'
p253
aS'kanggary58'
p254
aS'masijacoke85'
p255
aS'Quanninomarley'
p256
aS'chicagobulls'
p257
aS'nyknicks'
p258
asS'BillGates'
p259
(lp260
S'narendramodi'
p261
aS'SueDHellmann'
p262
aS'larrybrilliant'
p263
aS'AIDSVaccine'
p264
aS'DFID_Research'
p265
aS'globlhealth2035'
p266
aS'satyanadella'
p267
aS'SteveDavisPATH'
p268
aS'WIRED'
p269
aS'Cmdr_Hadfield'
p270
aS'Graphite'
p271
asg63
(lp272
sS'Sh_Farzan'
p273
(lp274
S'lifehacker'
p275
ag193
ag52
ag70
aS'katyperry'
p276
ag178
ag5
ag157
aS'YouTube'
p277
aS'TheNextWeb'
p278
aS'brookeburke'
p279
aS'ladygaga'
p280
ag259
ag219
ag90
aS'SimonCowell'
p281
aS'TwitterMusic'
p282
aS'ForbesTech'
p283
asg276
(lp284
S'TALAOFFICIAL'
p285
aS'MaisieKirn'
p286
aS'lonelydot'
p287
aS'DukeDumont'
p288
aS'arzE'
p289
aS'ozchrisrock'
p290
aS'IntThings'
p291
aS'billboard'
p292
aS'petracollins'
p293
aS'CHlLDHOODRUINER'
p294
aS'FuckJerry'
p295
aS'charli_xcx'
p296
aS'SortedItems'
p297
aS'vicenews'
p298
aS'ajam'
p299
aS'donaldglover'
p300
aS'katyperrylately'
p301
aS'TheVineTime'
p302
asS'dahlmaker'
p303
(lp304
S'WSJspeakeasy'
p305
aS'psm1021'
p306
aS'johnpeabody'
p307
aS'thehandandeye'
p308
aS'thejgold'
p309
aS'shapeways'
p310
aS'ChiaraFerragni'
p311
aS'neiltyson'
p312
aS'JustinDiPego'
p313
aS'Hawks_Wrestling'
p314
aS'toolcrave'
p315
aS'MichaelWolffNYC'
p316
aS'OriginateLabs'
p317
aS'KenLerer'
p318
aS'MoveTheSticks'
p319
aS'aatilley'
p320
aS'marclyman'
p321
aS'JohnLegere'
p322
asg60
(lp323
sS'thewildwong'
p324
(lp325
S'MerlexPicks'
p326
asg62
(lp327
sg56
(lp328
sg55
(lp329
sg275
(lp330
g131
aS'SkilletLH'
p331
ag25
ag303
aS'mr_patrickallan'
p332
ag199
ag324
aS'BethSkw'
p333
aS'DickTalens'
p334
aS'Curious_Heather'
p335
aS'VitalsLH'
p336
aS'HerbertLui'
p337
aS'andyorin'
p338
aS'WorkshopLH'
p339
aS'WayfarerLH'
p340
ag195
ag197
aS'Jalopnik'
p341
assS'followings'
p342
(lp343
g79
ag80
ag81
ag82
ag83
ag84
ag85
ag86
ag87
ag88
ag285
ag286
ag287
ag288
ag289
ag290
ag291
ag292
ag293
ag294
ag295
ag296
ag297
ag298
ag299
ag300
ag301
ag302
ag180
ag181
ag182
ag183
ag184
ag185
ag186
ag187
ag188
ag189
ag190
ag7
ag8
ag9
ag10
ag11
ag12
ag13
ag14
ag15
ag16
ag17
ag18
ag19
ag20
ag21
ag22
ag23
ag24
ag159
ag160
ag161
ag162
ag163
ag164
ag165
ag166
ag167
ag168
ag169
ag170
ag171
ag172
ag173
ag174
ag175
ag176
ag221
ag222
ag223
ag224
ag225
ag226
ag227
ag228
ag229
ag230
ag231
ag232
ag233
ag234
ag235
ag236
ag237
ag238
ag92
ag93
ag94
ag95
ag96
ag97
ag98
ag99
ag100
ag101
ag102
ag103
ag104
ag105
ag106
ag107
ag108
ag109
ag261
ag262
ag263
ag264
ag265
ag266
ag267
ag268
ag269
ag270
ag271
ag133
ag134
ag135
ag136
ag27
ag28
ag29
ag30
ag31
ag32
ag33
ag34
ag35
ag36
ag37
ag38
ag39
ag40
ag41
ag305
ag306
ag307
ag308
ag309
ag310
ag311
ag312
ag313
ag314
ag315
ag316
ag317
ag318
ag319
ag320
ag321
ag322
ag201
ag202
ag203
ag204
ag205
ag206
ag207
ag208
ag209
ag210
ag211
ag212
ag213
ag214
ag215
ag216
ag217
ag218
ag326
ag241
ag242
ag243
ag244
ag245
ag246
ag247
ag248
ag249
ag250
ag251
ag252
ag253
ag254
ag255
ag256
ag257
ag258
ag111
ag112
ag113
ag114
ag115
ag116
ag117
ag118
ag119
ag120
ag121
ag122
ag123
ag124
ag125
ag126
ag127
ag128
ag48
ag49
ag50
ag51
ag139
ag140
ag141
ag142
ag143
ag144
ag145
ag146
ag147
ag148
ag149
ag150
ag151
ag152
ag153
ag154
ag155
ag156
asS'mainpage_sources_with_user'
p344
(lp345
sS'Compiled_Users'
p346
(lp347
(g273
I0
tp348
a(g275
I0
tp349
a(g193
I0
tp350
a(g52
I20
tp351
a(g70
I0
tp352
a(g276
I0
tp353
a(g178
I10
tp354
a(g279
I0
tp355
a(g283
I12
tp356
a(g131
I0
tp357
a(g331
I7
tp358
a(g332
I0
tp359
a(g199
I9
tp360
asS'lvl1_passed_users'
p361
(lp362
g78
as.