(dp0
S'sources_for_user_extract'
p1
(lp2
sS'G'
p3
(dp4
S'kellyshalk'
p5
(lp6
sS'ladygaga'
p7
(lp8
sS'espn'
p9
(lp10
S'ITleader'
p11
aS'gman2oo1'
p12
aS'DVNJr'
p13
aS'ZachLowe_NBA'
p14
aS'rikimcdermott'
p15
aS'PGATOUR'
p16
aS'FieldYates'
p17
aS'NateRavitz'
p18
aS'ESPN_Cronometro'
p19
aS'ESPNDatos'
p20
aS'WhitlockJason'
p21
aS'ESPNF1'
p22
aS'ESPNBookers'
p23
aS'SprowESPN'
p24
aS'ESPNInsider'
p25
aS'MattBarrieESPN'
p26
aS'ESPNResearch'
p27
aS'ESPN_FanCentral'
p28
asS'twitterforgood'
p29
(lp30
sS'lifehacker'
p31
(lp32
sS'TwitterData'
p33
(lp34
S'twittertv'
p35
aS'TwitterMusic'
p36
aS'vine'
p37
aS'TwitterSports'
p38
aS'gov'
p39
aS'Nonprofits'
p40
aS'design'
p41
aS'twittermedia'
p42
aS'twitter'
p43
asS'TwitterMovies'
p44
(lp45
S'EdwardNorton'
p46
aS'_juliannemoore'
p47
aS'PattyArquette'
p48
aS'LauraDern'
p49
aS'OscarInterviews'
p50
aS'RobertDuvall'
p51
aS'antoniobanderas'
p52
aS'JamieDornan'
p53
aS'BAFTA'
p54
aS'melissamccarthy'
p55
aS'akalannie'
p56
aS'Sethrogen'
p57
aS'RWitherspoon'
p58
aS'wwwbigbaldhead'
p59
aS'craigzadan'
p60
aS'carlreiner'
p61
aS'MelBrooks'
p62
aS'neilmeron'
p63
asS'AwesomeFactsFTW'
p64
(lp65
sS'twitter'
p66
(lp67
g5
aS'MagicRecs'
p68
ag33
aS'TwitterFashion'
p69
ag44
aS'TwitterDev'
p70
ag29
aS'twittertv'
p71
aS'policy'
p72
aS'rosenblattdavid'
p73
aS'marjscar'
p74
aS'PeterChernin'
p75
aS'plscurrie'
p76
aS'peterfenton'
p77
aS'luca1it'
p78
aS'SkipSchipper'
p79
aS'vijaya'
p80
aS'danielgraf'
p81
asg70
(lp82
S'hackthecycle'
p83
aS'josephchong'
p84
aS'blockchainU'
p85
aS'ArnoldGelacio'
p86
aS'pi_kumar'
p87
aS'Jason'
p88
aS'lukelightning'
p89
aS'Launch'
p90
aS'liamcbride'
p91
aS'alexjsinger'
p92
aS'JBabichJapan'
p93
aS'Bernardamus'
p94
aS'CIC_StLouis'
p95
aS'noda3k'
p96
aS'DeanMugnaini'
p97
aS'Elaine'
p98
aS'jstpierre'
p99
aS'hemal'
p100
asS'HamisMpil'
p101
(lp102
sS'YouTube'
p103
(lp104
S'marylambertsing'
p105
aS'SusanWojcicki'
p106
aS'sendibo16'
p107
aS'Maxgschneider'
p108
aS'edsheeran'
p109
aS'megannicole'
p110
aS'alt_J'
p111
aS'CahootsBand'
p112
aS'gogreen18'
p113
aS'one_savvymom'
p114
aS'MommaTBlog'
p115
aS'gaynycdad'
p116
aS'amommyinthecity'
p117
aS'themoms'
p118
aS'ramshackleglam'
p119
aS'MommyFactor'
p120
aS'NYCDadsGroup'
p121
aS'jenrab'
p122
asg72
(lp123
sS'TechCrunch'
p124
(lp125
S'CaseyNewton'
p126
aS'c_magee27'
p127
aS'AOL_Inc'
p128
aS'KimKardashian'
p129
aS'jyarow'
p130
aS'twitterforgood'
p131
aS'markgurman'
p132
aS'HuffPostTech'
p133
aS'nottjmiller'
p134
aS'dogfishbeer'
p135
aS'evleaks'
p136
aS'hayley_nelson'
p137
aS'rezendi'
p138
aS'neddesmond'
p139
aS'sarahlane'
p140
aS'MattNavarra'
p141
aS'timarmstrongaol'
p142
aS'50cent'
p143
asS'JoshuaBeason'
p144
(lp145
S'steam_games'
p146
aS'ColIegeStudent'
p147
aS'BrosConfessions'
p148
aS'M_benz22'
p149
aS'neilkellie'
p150
aS'Fury_aki82'
p151
aS'sareee_adams'
p152
aS'mccoy_pat'
p153
aS'DonaldPierceJr'
p154
aS'TheFunnyTeens'
p155
aS'AwkwardMoment'
p156
aS'whydidskye'
p157
aS'KatelynPotter1'
p158
aS'tif_shai12'
p159
aS'12tsk12'
p160
aS'IliethaStorm'
p161
aS'LaurenTaylor217'
p162
aS'BarberWade004'
p163
asS'SimonCowell'
p164
(lp165
sS'gadgetlab'
p166
(lp167
S'BSGardiner'
p168
aS'joemfbrown'
p169
aS'kifleswing'
p170
aS'WIRED'
p171
aS'valentinalucia'
p172
aS'strngwys'
p173
aS'snackfight'
p174
aS'mat'
p175
aS'nateog'
p176
aS'alexandra_chang'
p177
aS'redgirlsays'
p178
asg75
(lp179
S'MissPeregrinesH'
p180
aS'StarwoodOffers'
p181
aS'MissPMovie'
p182
aS'FinancialTimes'
p183
aS'FrankQuattrone'
p184
aS'Nponce10'
p185
aS'OutfieldMovie'
p186
aS'BillSimmons'
p187
aS'Globe_Pics'
p188
aS'HistoryInPics'
p189
aS'Grantland33'
p190
aS'htagg_News'
p191
aS'message'
p192
aS'AlecMacGillis'
p193
aS'tubefilter'
p194
aS'lyft'
p195
aS'mariavalverde'
p196
aS'peterlauria3'
p197
asg73
(lp198
sS'uberlifehack'
p199
(lp200
S'huwaiida'
p201
ag101
ag144
asg201
(lp202
sS'Sh_Farzan'
p203
(lp204
g31
ag199
ag64
ag66
aS'katyperry'
p205
ag166
ag9
ag124
ag103
aS'TheNextWeb'
p206
aS'brookeburke'
p207
ag7
aS'BillGates'
p208
aS'TwitterSports'
p209
aS'BrunoMars'
p210
ag164
asg205
(lp211
S'TALAOFFICIAL'
p212
aS'MaisieKirn'
p213
aS'lonelydot'
p214
aS'DukeDumont'
p215
aS'arzE'
p216
aS'ozchrisrock'
p217
aS'IntThings'
p218
aS'billboard'
p219
aS'petracollins'
p220
aS'CHlLDHOODRUINER'
p221
aS'FuckJerry'
p222
aS'charli_xcx'
p223
aS'SortedItems'
p224
aS'vicenews'
p225
aS'ajam'
p226
aS'donaldglover'
p227
aS'katyperrylately'
p228
aS'TheVineTime'
p229
assS'followings'
p230
(lp231
g77
ag78
ag79
ag80
ag81
ag212
ag213
ag214
ag215
ag216
ag217
ag218
ag219
ag220
ag221
ag222
ag223
ag224
ag225
ag226
ag227
ag228
ag229
ag168
ag169
ag170
ag171
ag172
ag173
ag174
ag175
ag176
ag177
ag178
ag11
ag12
ag13
ag14
ag15
ag16
ag17
ag18
ag19
ag20
ag21
ag22
ag23
ag24
ag25
ag26
ag27
ag28
ag105
ag106
ag107
ag108
ag109
ag110
ag111
ag112
ag113
ag114
ag115
ag116
ag117
ag118
ag119
ag120
ag121
ag122
ag126
ag127
ag128
ag129
ag130
ag131
ag132
ag133
ag134
ag135
ag136
ag137
ag138
ag139
ag140
ag141
ag142
ag143
ag146
ag147
ag148
ag149
ag150
ag151
ag152
ag153
ag154
ag155
ag156
ag157
ag158
ag159
ag160
ag161
ag162
ag163
ag35
ag36
ag37
ag38
ag39
ag40
ag41
ag42
ag43
ag46
ag47
ag48
ag49
ag50
ag51
ag52
ag53
ag54
ag55
ag56
ag57
ag58
ag59
ag60
ag61
ag62
ag63
ag83
ag84
ag85
ag86
ag87
ag88
ag89
ag90
ag91
ag92
ag93
ag94
ag95
ag96
ag97
ag98
ag99
ag100
ag180
ag181
ag182
ag183
ag184
ag185
ag186
ag187
ag188
ag189
ag190
ag191
ag192
ag193
ag194
ag195
ag196
ag197
asS'mainpage_sources_with_user'
p232
(lp233
sS'Compiled_Users'
p234
(lp235
(g203
I2
tp236
a(g31
I4113
tp237
a(g64
I2
tp238
a(g166
I568
tp239
a(g207
I2306
tp240
a(g7
I0
tp241
a(g208
I3405
tp242
a(g164
I1427
tp243
a(g144
I198
tp244
a(g68
I0
tp245
a(g5
I92
tp246
a(g33
I476
tp247
a(g44
I0
tp248
a(g69
I128
tp249
a(g71
I0
tp250
a(g70
I2008
tp251
a(g72
I0
tp252
a(g73
I568
tp253
asS'lvl1_passed_users'
p254
(lp255
s.