(dp0
S'sources_for_user_extract'
p1
(lp2
sS'G'
p3
(dp4
S'gadgetlab'
p5
(lp6
S'BSGardiner'
p7
aS'joemfbrown'
p8
aS'kifleswing'
p9
aS'WIRED'
p10
aS'valentinalucia'
p11
aS'strngwys'
p12
aS'snackfight'
p13
aS'mat'
p14
aS'nateog'
p15
aS'alexandra_chang'
p16
aS'redgirlsays'
p17
asS'BillGates'
p18
(lp19
S'narendramodi'
p20
aS'SueDHellmann'
p21
aS'larrybrilliant'
p22
aS'AIDSVaccine'
p23
aS'DFID_Research'
p24
aS'globlhealth2035'
p25
aS'satyanadella'
p26
aS'SteveDavisPATH'
p27
aS'WIRED'
p28
aS'Cmdr_Hadfield'
p29
aS'Graphite'
p30
asS'Sh_Farzan'
p31
(lp32
S'lifehacker'
p33
aS'uberlifehack'
p34
aS'AwesomeFactsFTW'
p35
aS'twitter'
p36
aS'katyperry'
p37
ag5
aS'espn'
p38
aS'TechCrunch'
p39
aS'YouTube'
p40
aS'TheNextWeb'
p41
aS'brookeburke'
p42
aS'ladygaga'
p43
ag18
aS'TwitterSports'
p44
aS'BrunoMars'
p45
aS'SimonCowell'
p46
aS'TwitterMusic'
p47
aS'ForbesTech'
p48
asg37
(lp49
S'TALAOFFICIAL'
p50
aS'MaisieKirn'
p51
aS'lonelydot'
p52
aS'DukeDumont'
p53
aS'arzE'
p54
aS'ozchrisrock'
p55
aS'IntThings'
p56
aS'billboard'
p57
aS'petracollins'
p58
aS'CHlLDHOODRUINER'
p59
aS'FuckJerry'
p60
aS'charli_xcx'
p61
aS'SortedItems'
p62
aS'vicenews'
p63
aS'ajam'
p64
aS'donaldglover'
p65
aS'katyperrylately'
p66
aS'TheVineTime'
p67
asg38
(lp68
S'ITleader'
p69
aS'gman2oo1'
p70
aS'DVNJr'
p71
aS'ZachLowe_NBA'
p72
aS'rikimcdermott'
p73
aS'PGATOUR'
p74
aS'FieldYates'
p75
aS'NateRavitz'
p76
aS'ESPN_Cronometro'
p77
aS'ESPNDatos'
p78
aS'WhitlockJason'
p79
aS'ESPNF1'
p80
aS'ESPNBookers'
p81
aS'SprowESPN'
p82
aS'ESPNInsider'
p83
aS'MattBarrieESPN'
p84
aS'ESPNResearch'
p85
aS'ESPN_FanCentral'
p86
asS'dahlmaker'
p87
(lp88
S'WSJspeakeasy'
p89
aS'psm1021'
p90
aS'johnpeabody'
p91
aS'thehandandeye'
p92
aS'thejgold'
p93
aS'shapeways'
p94
aS'ChiaraFerragni'
p95
aS'neiltyson'
p96
aS'JustinDiPego'
p97
aS'Hawks_Wrestling'
p98
aS'toolcrave'
p99
aS'MichaelWolffNYC'
p100
aS'OriginateLabs'
p101
aS'KenLerer'
p102
aS'MoveTheSticks'
p103
aS'aatilley'
p104
aS'marclyman'
p105
aS'JohnLegere'
p106
asS'susannahchen'
p107
(lp108
S'baltzco'
p109
aS'bethkracklauer'
p110
aS'annaroth'
p111
aS'pete_wells'
p112
aS'pianofight'
p113
aS'jeffbercovici'
p114
aS'EisenPress'
p115
aS'LuckyPeach'
p116
aS'Lis_Mejia'
p117
aS'AP_Planner'
p118
aS'andyorin'
p119
aS'firstwefeast'
p120
aS'SkilletLH'
p121
aS'WhitsonGordon'
p122
aS'halophoenix'
p123
aS'lifehacker'
p124
aS'MisterJiu'
p125
aS'chrisyingz'
p126
asS'thewildwong'
p127
(lp128
S'MerlexPicks'
p129
asg36
(lp130
S'kellyshalk'
p131
aS'MagicRecs'
p132
aS'TwitterData'
p133
aS'TwitterFashion'
p134
aS'TwitterMovies'
p135
aS'TwitterDev'
p136
aS'twitterforgood'
p137
aS'twittertv'
p138
aS'policy'
p139
aS'rosenblattdavid'
p140
aS'marjscar'
p141
aS'PeterChernin'
p142
aS'plscurrie'
p143
aS'peterfenton'
p144
aS'luca1it'
p145
aS'SkipSchipper'
p146
aS'vijaya'
p147
aS'danielgraf'
p148
asg39
(lp149
S'CaseyNewton'
p150
aS'c_magee27'
p151
aS'AOL_Inc'
p152
aS'KimKardashian'
p153
aS'jyarow'
p154
aS'twitterforgood'
p155
aS'markgurman'
p156
aS'HuffPostTech'
p157
aS'nottjmiller'
p158
aS'dogfishbeer'
p159
aS'evleaks'
p160
aS'hayley_nelson'
p161
aS'rezendi'
p162
aS'neddesmond'
p163
aS'sarahlane'
p164
aS'MattNavarra'
p165
aS'timarmstrongaol'
p166
aS'50cent'
p167
asg34
(lp168
sS'RoundTeam'
p169
(lp170
S'roundteam_test'
p171
aS'RoundTeamInc'
p172
aS'GannaBoiko'
p173
aS'oboiko'
p174
asg44
(lp175
S'lleytonhewitt'
p176
aS'Wolfoff'
p177
aS'billclinton'
p178
aS'skratch_tv'
p179
aS'AustralianOpen'
p180
aS'ESPNCFB'
p181
aS'danawhite'
p182
aS'orafa2'
p183
aS'rugbyworldcup'
p184
aS'TheRealJGuts'
p185
aS'vivian'
p186
aS'FIFAcom'
p187
aS'TwitterSportsCA'
p188
aS'BelRedDevils'
p189
aS'PJags06'
p190
aS'FEFecuador'
p191
aS'NFSBiH'
p192
aS'LesVerts'
p193
asS'calldrdave'
p194
(lp195
S'LinusTech'
p196
aS'updownkc'
p197
aS'portlandia'
p198
aS'halophoenix'
p199
aS'andyorin'
p200
aS'theforcefield'
p201
aS'BlueServiceCrew'
p202
aS'KristianNairn'
p203
aS'DickTalens'
p204
aS'VitalsLH'
p205
aS'VZWSupport'
p206
aS'VerizonSupport'
p207
aS'kevinmitnick'
p208
aS'evernotehelps'
p209
aS'hurrythefoodup'
p210
asg35
(lp211
S'guso90210'
p212
aS'carlosb56814660'
p213
aS'Perhaps_Ur_RAAZ'
p214
aS'rachrayray'
p215
aS'CoreyMartin55'
p216
aS'morgannmusser'
p217
aS'634415964D'
p218
aS'Shavakan'
p219
aS'didomX'
p220
aS'AceMc84'
p221
aS'warodet'
p222
aS'han__clarke'
p223
aS'GeorginaMoulton'
p224
aS'dillazaxo'
p225
aS'Shrusakshi'
p226
aS'socreative'
p227
aS'DammitKong'
p228
aS'alimh059970'
p229
asg33
(lp230
g169
aS'SkilletLH'
p231
ag194
ag87
aS'mr_patrickallan'
p232
ag107
ag127
aS'BethSkw'
p233
aS'DickTalens'
p234
aS'Curious_Heather'
p235
aS'VitalsLH'
p236
aS'HerbertLui'
p237
aS'andyorin'
p238
aS'WorkshopLH'
p239
aS'WayfarerLH'
p240
aS'wellfactually'
p241
aS'sploid'
p242
aS'Jalopnik'
p243
asg45
(lp244
S'JessicaCaban'
p245
aS'laurenxjessica'
p246
aS'TreasureU2'
p247
aS'LadySmeezington'
p248
aS'chartnews'
p249
aS'miss_lady_diva'
p250
aS'RollingStone'
p251
aS'EllieeeWood'
p252
aS'nbcsnl'
p253
aS'BrunosLadyClub'
p254
aS'Rach_Mars'
p255
aS'Joe_Gatto'
p256
aS'jessicabanfans'
p257
aS'BrunoMarsLately'
p258
aS'voguemagazine'
p259
aS'Pink'
p260
aS'rihanna'
p261
aS'TheEllenShow'
p262
assS'followings'
p263
(lp264
g237
ag238
ag239
ag240
ag241
ag242
ag243
ag212
ag213
ag214
ag215
ag216
ag217
ag218
ag219
ag220
ag221
ag222
ag223
ag224
ag225
ag226
ag227
ag228
ag229
ag131
ag132
ag133
ag134
ag135
ag136
ag137
ag138
ag139
ag140
ag141
ag142
ag143
ag144
ag145
ag146
ag147
ag148
ag50
ag51
ag52
ag53
ag54
ag55
ag56
ag57
ag58
ag59
ag60
ag61
ag62
ag63
ag64
ag65
ag66
ag67
ag7
ag8
ag9
ag10
ag11
ag12
ag13
ag14
ag15
ag16
ag17
ag69
ag70
ag71
ag72
ag73
ag74
ag75
ag76
ag77
ag78
ag79
ag80
ag81
ag82
ag83
ag84
ag85
ag86
ag150
ag151
ag152
ag153
ag154
ag155
ag156
ag157
ag158
ag159
ag160
ag161
ag162
ag163
ag164
ag165
ag166
ag167
ag176
ag177
ag178
ag179
ag180
ag181
ag182
ag183
ag184
ag185
ag186
ag187
ag188
ag189
ag190
ag191
ag192
ag193
ag245
ag246
ag247
ag248
ag249
ag250
ag251
ag252
ag253
ag254
ag255
ag256
ag257
ag258
ag259
ag260
ag261
ag262
ag20
ag21
ag22
ag23
ag24
ag25
ag26
ag27
ag28
ag29
ag30
ag171
ag172
ag173
ag174
ag196
ag197
ag198
ag199
ag200
ag201
ag202
ag203
ag204
ag205
ag206
ag207
ag208
ag209
ag210
ag89
ag90
ag91
ag92
ag93
ag94
ag95
ag96
ag97
ag98
ag99
ag100
ag101
ag102
ag103
ag104
ag105
ag106
ag109
ag110
ag111
ag112
ag113
ag114
ag115
ag116
ag117
ag118
ag119
ag120
ag121
ag122
ag123
ag124
ag125
ag126
ag129
asS'mainpage_sources_with_user'
p265
(lp266
sS'Compiled_Users'
p267
(lp268
(g31
I0
tp269
a(g33
I0
tp270
a(g34
I0
tp271
a(g35
I20
tp272
a(g36
I0
tp273
a(g37
I0
tp274
a(g5
I10
tp275
a(g42
I0
tp276
a(g48
I12
tp277
a(g169
I0
tp278
a(g231
I7
tp279
a(g232
I0
tp280
a(g107
I9
tp281
asS'lvl1_passed_users'
p282
(lp283
g235
ag236
as.